target datalayout = "e-m:e-p270:32:32-p271:32:32-p272:64:64-i64:64-i128:128-f80:128-n8:16:32:64-S128"
target triple = "x86_64-pc-linux-gnu"

%"class.std::__cxx11::basic_string" = type { %"struct.std::__cxx11::basic_string<char>::_Alloc_hider", i64, %union.anon }
%"struct.std::__cxx11::basic_string<char>::_Alloc_hider" = type { ptr }
%union.anon = type { i64, [8 x i8] }
%"class.cmsys::RegularExpression" = type <{ %"class.cmsys::RegularExpressionMatch", i8, i8, [6 x i8], ptr, i64, ptr, i32, [4 x i8] }>
%"class.cmsys::RegularExpressionMatch" = type { [32 x ptr], [32 x ptr], ptr }
%class.cmStateSnapshot = type { ptr, %"class.cmLinkedTree<cmStateDetail::SnapshotDataType>::iterator" }
%"class.cmLinkedTree<cmStateDetail::SnapshotDataType>::iterator" = type { ptr, i64 }
%class.cmMakefile = type { %"class.std::deque", %"class.std::set", %"class.std::unordered_map", %"class.std::map", %"class.std::vector", %"class.std::vector.21", %"class.std::unordered_map.26", %"class.std::unordered_map.40", %"class.std::map.54", %"class.std::set.59", %"class.std::vector.64", %"class.std::vector.64", %"class.std::vector.69", %"class.std::vector.74", %"class.std::__cxx11::basic_string", %"class.std::__cxx11::basic_string", %"class.std::__cxx11::basic_string", %"class.std::vector.79", i64, ptr, %class.cmStateSnapshot, %class.cmListFileBacktrace, i64, %"class.std::unique_ptr", i8, %"class.std::function", %"class.std::stack", %"class.std::vector.91", %"class.std::stack.96", %"class.cmsys::RegularExpression", %"class.cmsys::RegularExpression", %"class.cmsys::RegularExpression", %"class.cmsys::RegularExpression", %"class.std::vector.103", %"class.std::vector.108", %"class.std::vector.113", %"class.std::vector.118", %"class.std::vector.123", %"class.std::unordered_map.128", %"class.std::vector.142", i8, %class.cmFindPackageStack, i32, i8, i8, i8, %"class.std::set.59", %"class.std::set.59", i8, i8, i32 }
%"class.std::deque" = type { %"class.std::_Deque_base" }
%"class.std::_Deque_base" = type { %"struct.std::_Deque_base<std::vector<std::__cxx11::basic_string<char>>, std::allocator<std::vector<std::__cxx11::basic_string<char>>>>::_Deque_impl" }
%"struct.std::_Deque_base<std::vector<std::__cxx11::basic_string<char>>, std::allocator<std::vector<std::__cxx11::basic_string<char>>>>::_Deque_impl" = type { %"struct.std::_Deque_base<std::vector<std::__cxx11::basic_string<char>>, std::allocator<std::vector<std::__cxx11::basic_string<char>>>>::_Deque_impl_data" }
%"struct.std::_Deque_base<std::vector<std::__cxx11::basic_string<char>>, std::allocator<std::vector<std::__cxx11::basic_string<char>>>>::_Deque_impl_data" = type { ptr, i64, %"struct.std::_Deque_iterator", %"struct.std::_Deque_iterator" }
%"struct.std::_Deque_iterator" = type { ptr, ptr, ptr, ptr }
%"class.std::set" = type { %"class.std::_Rb_tree" }
%"class.std::_Rb_tree" = type { %"struct.std::_Rb_tree<cmListFileContext, cmListFileContext, std::_Identity<cmListFileContext>, std::less<cmListFileContext>>::_Rb_tree_impl" }
%"struct.std::_Rb_tree<cmListFileContext, cmListFileContext, std::_Identity<cmListFileContext>, std::less<cmListFileContext>>::_Rb_tree_impl" = type { %"struct.std::_Rb_tree_key_compare", %"struct.std::_Rb_tree_header" }
%"struct.std::_Rb_tree_key_compare" = type { %"struct.std::less" }
%"struct.std::less" = type { i8 }
%"struct.std::_Rb_tree_header" = type { %"struct.std::_Rb_tree_node_base", i64 }
%"struct.std::_Rb_tree_node_base" = type { i32, ptr, ptr, ptr }
%"class.std::unordered_map" = type { %"class.std::_Hashtable" }
%"class.std::_Hashtable" = type { ptr, i64, %"struct.std::__detail::_Hash_node_base", i64, %"struct.std::__detail::_Prime_rehash_policy", ptr }
%"struct.std::__detail::_Hash_node_base" = type { ptr }
%"struct.std::__detail::_Prime_rehash_policy" = type { float, i64 }
%"class.std::map" = type { %"class.std::_Rb_tree.12" }
%"class.std::_Rb_tree.12" = type { %"struct.std::_Rb_tree<std::__cxx11::basic_string<char>, std::pair<const std::__cxx11::basic_string<char>, std::__cxx11::basic_string<char>>, std::_Select1st<std::pair<const std::__cxx11::basic_string<char>, std::__cxx11::basic_string<char>>>, std::less<std::__cxx11::basic_string<char>>>::_Rb_tree_impl" }
%"struct.std::_Rb_tree<std::__cxx11::basic_string<char>, std::pair<const std::__cxx11::basic_string<char>, std::__cxx11::basic_string<char>>, std::_Select1st<std::pair<const std::__cxx11::basic_string<char>, std::__cxx11::basic_string<char>>>, std::less<std::__cxx11::basic_string<char>>>::_Rb_tree_impl" = type { %"struct.std::_Rb_tree_key_compare.16", %"struct.std::_Rb_tree_header" }
%"struct.std::_Rb_tree_key_compare.16" = type { %"struct.std::less.17" }
%"struct.std::less.17" = type { i8 }
%"class.std::vector" = type { %"struct.std::_Vector_base" }
%"struct.std::_Vector_base" = type { %"struct.std::_Vector_base<cmTarget *, std::allocator<cmTarget *>>::_Vector_impl" }
%"struct.std::_Vector_base<cmTarget *, std::allocator<cmTarget *>>::_Vector_impl" = type { %"struct.std::_Vector_base<cmTarget *, std::allocator<cmTarget *>>::_Vector_impl_data" }
%"struct.std::_Vector_base<cmTarget *, std::allocator<cmTarget *>>::_Vector_impl_data" = type { ptr, ptr, ptr }
%"class.std::vector.21" = type { %"struct.std::_Vector_base.22" }
%"struct.std::_Vector_base.22" = type { %"struct.std::_Vector_base<std::unique_ptr<cmSourceFile>, std::allocator<std::unique_ptr<cmSourceFile>>>::_Vector_impl" }
%"struct.std::_Vector_base<std::unique_ptr<cmSourceFile>, std::allocator<std::unique_ptr<cmSourceFile>>>::_Vector_impl" = type { %"struct.std::_Vector_base<std::unique_ptr<cmSourceFile>, std::allocator<std::unique_ptr<cmSourceFile>>>::_Vector_impl_data" }
%"struct.std::_Vector_base<std::unique_ptr<cmSourceFile>, std::allocator<std::unique_ptr<cmSourceFile>>>::_Vector_impl_data" = type { ptr, ptr, ptr }
%"class.std::unordered_map.26" = type { %"class.std::_Hashtable.27" }
%"class.std::_Hashtable.27" = type { ptr, i64, %"struct.std::__detail::_Hash_node_base", i64, %"struct.std::__detail::_Prime_rehash_policy", ptr }
%"class.std::unordered_map.40" = type { %"class.std::_Hashtable.41" }
%"class.std::_Hashtable.41" = type { ptr, i64, %"struct.std::__detail::_Hash_node_base", i64, %"struct.std::__detail::_Prime_rehash_policy", ptr }
%"class.std::map.54" = type { %"class.std::_Rb_tree.55" }
%"class.std::_Rb_tree.55" = type { %"struct.std::_Rb_tree<std::__cxx11::basic_string<char>, std::pair<const std::__cxx11::basic_string<char>, std::unique_ptr<cmTest>>, std::_Select1st<std::pair<const std::__cxx11::basic_string<char>, std::unique_ptr<cmTest>>>, std::less<std::__cxx11::basic_string<char>>>::_Rb_tree_impl" }
%"struct.std::_Rb_tree<std::__cxx11::basic_string<char>, std::pair<const std::__cxx11::basic_string<char>, std::unique_ptr<cmTest>>, std::_Select1st<std::pair<const std::__cxx11::basic_string<char>, std::unique_ptr<cmTest>>>, std::less<std::__cxx11::basic_string<char>>>::_Rb_tree_impl" = type { %"struct.std::_Rb_tree_key_compare.16", %"struct.std::_Rb_tree_header" }
%"class.std::vector.64" = type { %"struct.std::_Vector_base.65" }
%"struct.std::_Vector_base.65" = type { %"struct.std::_Vector_base<std::__cxx11::basic_string<char>, std::allocator<std::__cxx11::basic_string<char>>>::_Vector_impl" }
%"struct.std::_Vector_base<std::__cxx11::basic_string<char>, std::allocator<std::__cxx11::basic_string<char>>>::_Vector_impl" = type { %"struct.std::_Vector_base<std::__cxx11::basic_string<char>, std::allocator<std::__cxx11::basic_string<char>>>::_Vector_impl_data" }
%"struct.std::_Vector_base<std::__cxx11::basic_string<char>, std::allocator<std::__cxx11::basic_string<char>>>::_Vector_impl_data" = type { ptr, ptr, ptr }
%"class.std::vector.69" = type { %"struct.std::_Vector_base.70" }
%"struct.std::_Vector_base.70" = type { %"struct.std::_Vector_base<std::unique_ptr<cmInstallGenerator>, std::allocator<std::unique_ptr<cmInstallGenerator>>>::_Vector_impl" }
%"struct.std::_Vector_base<std::unique_ptr<cmInstallGenerator>, std::allocator<std::unique_ptr<cmInstallGenerator>>>::_Vector_impl" = type { %"struct.std::_Vector_base<std::unique_ptr<cmInstallGenerator>, std::allocator<std::unique_ptr<cmInstallGenerator>>>::_Vector_impl_data" }
%"struct.std::_Vector_base<std::unique_ptr<cmInstallGenerator>, std::allocator<std::unique_ptr<cmInstallGenerator>>>::_Vector_impl_data" = type { ptr, ptr, ptr }
%"class.std::vector.74" = type { %"struct.std::_Vector_base.75" }
%"struct.std::_Vector_base.75" = type { %"struct.std::_Vector_base<std::unique_ptr<cmTestGenerator>, std::allocator<std::unique_ptr<cmTestGenerator>>>::_Vector_impl" }
%"struct.std::_Vector_base<std::unique_ptr<cmTestGenerator>, std::allocator<std::unique_ptr<cmTestGenerator>>>::_Vector_impl" = type { %"struct.std::_Vector_base<std::unique_ptr<cmTestGenerator>, std::allocator<std::unique_ptr<cmTestGenerator>>>::_Vector_impl_data" }
%"struct.std::_Vector_base<std::unique_ptr<cmTestGenerator>, std::allocator<std::unique_ptr<cmTestGenerator>>>::_Vector_impl_data" = type { ptr, ptr, ptr }
%"class.std::vector.79" = type { %"struct.std::_Vector_base.80" }
%"struct.std::_Vector_base.80" = type { %"struct.std::_Vector_base<cmSourceGroup, std::allocator<cmSourceGroup>>::_Vector_impl" }
%"struct.std::_Vector_base<cmSourceGroup, std::allocator<cmSourceGroup>>::_Vector_impl" = type { %"struct.std::_Vector_base<cmSourceGroup, std::allocator<cmSourceGroup>>::_Vector_impl_data" }
%"struct.std::_Vector_base<cmSourceGroup, std::allocator<cmSourceGroup>>::_Vector_impl_data" = type { ptr, ptr, ptr }
%class.cmListFileBacktrace = type { %class.cmConstStack }
%class.cmConstStack = type { %"class.std::shared_ptr" }
%"class.std::shared_ptr" = type { %"class.std::__shared_ptr" }
%"class.std::__shared_ptr" = type { ptr, %"class.std::__shared_count" }
%"class.std::__shared_count" = type { ptr }
%"class.std::unique_ptr" = type { %"struct.std::__uniq_ptr_data" }
%"struct.std::__uniq_ptr_data" = type { %"class.std::__uniq_ptr_impl" }
%"class.std::__uniq_ptr_impl" = type { %"class.std::tuple" }
%"class.std::tuple" = type { %"struct.std::_Tuple_impl" }
%"struct.std::_Tuple_impl" = type { %"struct.std::_Head_base.85" }
%"struct.std::_Head_base.85" = type { ptr }
%"class.std::function" = type { %"class.std::_Function_base", ptr }
%"class.std::_Function_base" = type { %"union.std::_Any_data", ptr }
%"union.std::_Any_data" = type { %"union.std::_Nocopy_types" }
%"union.std::_Nocopy_types" = type { { i64, i64 } }
%"class.std::stack" = type { %"class.std::vector.86" }
%"class.std::vector.86" = type { %"struct.std::_Vector_base.87" }
%"struct.std::_Vector_base.87" = type { %"struct.std::_Vector_base<std::unique_ptr<cmFunctionBlocker>, std::allocator<std::unique_ptr<cmFunctionBlocker>>>::_Vector_impl" }
%"struct.std::_Vector_base<std::unique_ptr<cmFunctionBlocker>, std::allocator<std::unique_ptr<cmFunctionBlocker>>>::_Vector_impl" = type { %"struct.std::_Vector_base<std::unique_ptr<cmFunctionBlocker>, std::allocator<std::unique_ptr<cmFunctionBlocker>>>::_Vector_impl_data" }
%"struct.std::_Vector_base<std::unique_ptr<cmFunctionBlocker>, std::allocator<std::unique_ptr<cmFunctionBlocker>>>::_Vector_impl_data" = type { ptr, ptr, ptr }
%"class.std::vector.91" = type { %"struct.std::_Vector_base.92" }
%"struct.std::_Vector_base.92" = type { %"struct.std::_Vector_base<unsigned long, std::allocator<unsigned long>>::_Vector_impl" }
%"struct.std::_Vector_base<unsigned long, std::allocator<unsigned long>>::_Vector_impl" = type { %"struct.std::_Vector_base<unsigned long, std::allocator<unsigned long>>::_Vector_impl_data" }
%"struct.std::_Vector_base<unsigned long, std::allocator<unsigned long>>::_Vector_impl_data" = type { ptr, ptr, ptr }
%"class.std::stack.96" = type { %"class.std::deque.97" }
%"class.std::deque.97" = type { %"class.std::_Deque_base.98" }
%"class.std::_Deque_base.98" = type { %"struct.std::_Deque_base<int, std::allocator<int>>::_Deque_impl" }
%"struct.std::_Deque_base<int, std::allocator<int>>::_Deque_impl" = type { %"struct.std::_Deque_base<int, std::allocator<int>>::_Deque_impl_data" }
%"struct.std::_Deque_base<int, std::allocator<int>>::_Deque_impl_data" = type { ptr, i64, %"struct.std::_Deque_iterator.102", %"struct.std::_Deque_iterator.102" }
%"struct.std::_Deque_iterator.102" = type { ptr, ptr, ptr, ptr }
%"class.std::vector.103" = type { %"struct.std::_Vector_base.104" }
%"struct.std::_Vector_base.104" = type { %"struct.std::_Vector_base<cmMakefile *, std::allocator<cmMakefile *>>::_Vector_impl" }
%"struct.std::_Vector_base<cmMakefile *, std::allocator<cmMakefile *>>::_Vector_impl" = type { %"struct.std::_Vector_base<cmMakefile *, std::allocator<cmMakefile *>>::_Vector_impl_data" }
%"struct.std::_Vector_base<cmMakefile *, std::allocator<cmMakefile *>>::_Vector_impl_data" = type { ptr, ptr, ptr }
%"class.std::vector.108" = type { %"struct.std::_Vector_base.109" }
%"struct.std::_Vector_base.109" = type { %"struct.std::_Vector_base<std::unique_ptr<cmExportBuildFileGenerator>, std::allocator<std::unique_ptr<cmExportBuildFileGenerator>>>::_Vector_impl" }
%"struct.std::_Vector_base<std::unique_ptr<cmExportBuildFileGenerator>, std::allocator<std::unique_ptr<cmExportBuildFileGenerator>>>::_Vector_impl" = type { %"struct.std::_Vector_base<std::unique_ptr<cmExportBuildFileGenerator>, std::allocator<std::unique_ptr<cmExportBuildFileGenerator>>>::_Vector_impl_data" }
%"struct.std::_Vector_base<std::unique_ptr<cmExportBuildFileGenerator>, std::allocator<std::unique_ptr<cmExportBuildFileGenerator>>>::_Vector_impl_data" = type { ptr, ptr, ptr }
%"class.std::vector.113" = type { %"struct.std::_Vector_base.114" }
%"struct.std::_Vector_base.114" = type { %"struct.std::_Vector_base<std::unique_ptr<cmGeneratorExpressionEvaluationFile>, std::allocator<std::unique_ptr<cmGeneratorExpressionEvaluationFile>>>::_Vector_impl" }
%"struct.std::_Vector_base<std::unique_ptr<cmGeneratorExpressionEvaluationFile>, std::allocator<std::unique_ptr<cmGeneratorExpressionEvaluationFile>>>::_Vector_impl" = type { %"struct.std::_Vector_base<std::unique_ptr<cmGeneratorExpressionEvaluationFile>, std::allocator<std::unique_ptr<cmGeneratorExpressionEvaluationFile>>>::_Vector_impl_data" }
%"struct.std::_Vector_base<std::unique_ptr<cmGeneratorExpressionEvaluationFile>, std::allocator<std::unique_ptr<cmGeneratorExpressionEvaluationFile>>>::_Vector_impl_data" = type { ptr, ptr, ptr }
%"class.std::vector.118" = type { %"struct.std::_Vector_base.119" }
%"struct.std::_Vector_base.119" = type { %"struct.std::_Vector_base<cmExecutionStatus *, std::allocator<cmExecutionStatus *>>::_Vector_impl" }
%"struct.std::_Vector_base<cmExecutionStatus *, std::allocator<cmExecutionStatus *>>::_Vector_impl" = type { %"struct.std::_Vector_base<cmExecutionStatus *, std::allocator<cmExecutionStatus *>>::_Vector_impl_data" }
%"struct.std::_Vector_base<cmExecutionStatus *, std::allocator<cmExecutionStatus *>>::_Vector_impl_data" = type { ptr, ptr, ptr }
%"class.std::vector.123" = type { %"struct.std::_Vector_base.124" }
%"struct.std::_Vector_base.124" = type { %"struct.std::_Vector_base<std::unique_ptr<cmTarget>, std::allocator<std::unique_ptr<cmTarget>>>::_Vector_impl" }
%"struct.std::_Vector_base<std::unique_ptr<cmTarget>, std::allocator<std::unique_ptr<cmTarget>>>::_Vector_impl" = type { %"struct.std::_Vector_base<std::unique_ptr<cmTarget>, std::allocator<std::unique_ptr<cmTarget>>>::_Vector_impl_data" }
%"struct.std::_Vector_base<std::unique_ptr<cmTarget>, std::allocator<std::unique_ptr<cmTarget>>>::_Vector_impl_data" = type { ptr, ptr, ptr }
%"class.std::unordered_map.128" = type { %"class.std::_Hashtable.129" }
%"class.std::_Hashtable.129" = type { ptr, i64, %"struct.std::__detail::_Hash_node_base", i64, %"struct.std::__detail::_Prime_rehash_policy", ptr }
%"class.std::vector.142" = type { %"struct.std::_Vector_base.143" }
%"struct.std::_Vector_base.143" = type { %"struct.std::_Vector_base<BT<cmMakefile::GeneratorAction>, std::allocator<BT<cmMakefile::GeneratorAction>>>::_Vector_impl" }
%"struct.std::_Vector_base<BT<cmMakefile::GeneratorAction>, std::allocator<BT<cmMakefile::GeneratorAction>>>::_Vector_impl" = type { %"struct.std::_Vector_base<BT<cmMakefile::GeneratorAction>, std::allocator<BT<cmMakefile::GeneratorAction>>>::_Vector_impl_data" }
%"struct.std::_Vector_base<BT<cmMakefile::GeneratorAction>, std::allocator<BT<cmMakefile::GeneratorAction>>>::_Vector_impl_data" = type { ptr, ptr, ptr }
%class.cmFindPackageStack = type { %class.cmConstStack.147 }
%class.cmConstStack.147 = type { %"class.std::shared_ptr.148" }
%"class.std::shared_ptr.148" = type { %"class.std::__shared_ptr.149" }
%"class.std::__shared_ptr.149" = type { ptr, %"class.std::__shared_count" }
%"class.std::set.59" = type { %"class.std::_Rb_tree.60" }
%"class.std::_Rb_tree.60" = type { %"struct.std::_Rb_tree<std::__cxx11::basic_string<char>, std::__cxx11::basic_string<char>, std::_Identity<std::__cxx11::basic_string<char>>, std::less<std::__cxx11::basic_string<char>>>::_Rb_tree_impl" }
%"struct.std::_Rb_tree<std::__cxx11::basic_string<char>, std::__cxx11::basic_string<char>, std::_Identity<std::__cxx11::basic_string<char>>, std::less<std::__cxx11::basic_string<char>>>::_Rb_tree_impl" = type { %"struct.std::_Rb_tree_key_compare.16", %"struct.std::_Rb_tree_header" }

; Function Attrs: mustprogress uwtable
define dso_local void @_ZN10cmMakefile16RemoveDefineFlagERKNSt7__cxx1112basic_stringIcSt11char_traitsIcESaIcEEE(ptr noundef nonnull align 8 dereferenceable(3520) %0, ptr noundef nonnull align 8 dereferenceable(32) %1) #5 align 2 {
  %3 = alloca ptr, align 8
  %4 = alloca ptr, align 8
  store ptr %0, ptr %3, align 8
  store ptr %1, ptr %4, align 8
  %5 = load ptr, ptr %3, align 8
  %6 = load ptr, ptr %4, align 8
  %7 = call noundef zeroext i1 @_ZNKSt7__cxx1112basic_stringIcSt11char_traitsIcESaIcEE5emptyEv(ptr noundef nonnull align 8 dereferenceable(32) %6) #3
  br i1 %7, label %8, label %9

8:                                                ; preds = %2
  br label %18

9:                                                ; preds = %2
  %10 = load ptr, ptr %4, align 8
  %11 = getelementptr inbounds %class.cmMakefile, ptr %5, i32 0, i32 16
  call void @_ZL18s_RemoveDefineFlagRKNSt7__cxx1112basic_stringIcSt11char_traitsIcESaIcEEERS4_(ptr noundef nonnull align 8 dereferenceable(32) %10, ptr noundef nonnull align 8 dereferenceable(32) %11)
  %12 = load ptr, ptr %4, align 8
  %13 = call noundef zeroext i1 @_ZN10cmMakefile15ParseDefineFlagERKNSt7__cxx1112basic_stringIcSt11char_traitsIcESaIcEEEb(ptr noundef nonnull align 8 dereferenceable(3520) %5, ptr noundef nonnull align 8 dereferenceable(32) %12, i1 noundef zeroext true)
  br i1 %13, label %14, label %15

14:                                               ; preds = %9
  br label %18

15:                                               ; preds = %9
  %16 = load ptr, ptr %4, align 8
  %17 = getelementptr inbounds %class.cmMakefile, ptr %5, i32 0, i32 15
  call void @_ZL18s_RemoveDefineFlagRKNSt7__cxx1112basic_stringIcSt11char_traitsIcESaIcEEERS4_(ptr noundef nonnull align 8 dereferenceable(32) %16, ptr noundef nonnull align 8 dereferenceable(32) %17)
  br label %18

18:                                               ; preds = %15, %14, %8
  ret void
}